; Function Attrs: mustprogress uwtable
define dso_local void @_ZN3net16QuicCryptoStreamC2EPNS_11QuicSessionE(ptr noundef nonnull align 8 dereferenceable(1048) %this, ptr noundef %session) unnamed_addr #0 align 2 personality ptr @__gxx_personality_v0 {
entry:
  tail call void @_ZN3net18ReliableQuicStreamC2EjPNS_11QuicSessionE(ptr noundef nonnull align 8 dereferenceable(377) %this, i32 noundef 1, ptr noundef %session)
  %0 = getelementptr inbounds i8, ptr %this, i64 384
  store ptr getelementptr inbounds ({ [19 x ptr], [6 x ptr] }, ptr @_ZTVN3net16QuicCryptoStreamE, i64 0, i32 0, i64 2), ptr %this, align 8
  store ptr getelementptr inbounds ({ [19 x ptr], [6 x ptr] }, ptr @_ZTVN3net16QuicCryptoStreamE, i64 0, i32 1, i64 2), ptr %0, align 8
  %encryption_established_ = getelementptr inbounds i8, ptr %this, i64 392
  store i8 0, ptr %encryption_established_, align 8
  %handshake_confirmed_ = getelementptr inbounds i8, ptr %this, i64 393
  store i8 0, ptr %handshake_confirmed_, align 1
  %crypto_negotiated_params_ = getelementptr inbounds i8, ptr %this, i64 400
  invoke void @_ZN3net30QuicCryptoNegotiatedParametersC1Ev(ptr noundef nonnull align 8 dereferenceable(433) %crypto_negotiated_params_)
          to label %invoke.cont unwind label %lpad

invoke.cont:                                      ; preds = %entry
  %crypto_framer_ = getelementptr inbounds i8, ptr %this, i64 840
  invoke void @_ZN3net12CryptoFramerC1Ev(ptr noundef nonnull align 8 dereferenceable(208) %crypto_framer_)
          to label %invoke.cont3 unwind label %lpad2

invoke.cont3:                                     ; preds = %invoke.cont
  %visitor_.i = getelementptr inbounds i8, ptr %this, i64 848
  store ptr %0, ptr %visitor_.i, align 8
  %stream_contributes_to_connection_flow_control_.i = getelementptr inbounds i8, ptr %this, i64 376
  store i8 0, ptr %stream_contributes_to_connection_flow_control_.i, align 8
  ret void

lpad:                                             ; preds = %entry
  %1 = landingpad { ptr, i32 }
          cleanup
  br label %ehcleanup9

lpad2:                                            ; preds = %invoke.cont
  %2 = landingpad { ptr, i32 }
          cleanup
  tail call void @_ZN3net30QuicCryptoNegotiatedParametersD1Ev(ptr noundef nonnull align 8 dereferenceable(433) %crypto_negotiated_params_) #8
  br label %ehcleanup9

ehcleanup9:                                       ; preds = %lpad2, %lpad
  %.pn = phi { ptr, i32 } [ %2, %lpad2 ], [ %1, %lpad ]
  tail call void @_ZN3net18ReliableQuicStreamD2Ev(ptr noundef nonnull align 8 dereferenceable(377) %this) #8
  resume { ptr, i32 } %.pn
}